; Function Attrs: nounwind uwtable
define ptr @l_Lean_Expr_withAppAux___at___private_Lean_Meta_RecursorInfo_0__Lean_Meta_mkRecursorInfoCore___spec__2___lambda__1___boxed(ptr noundef readonly captures(none) %0) #0 {
  %2 = load ptr, ptr %0, align 8, !tbaa !4
  %3 = getelementptr inbounds nuw i8, ptr %0, i64 8
  %4 = load ptr, ptr %3, align 8, !tbaa !4
  %5 = getelementptr inbounds nuw i8, ptr %0, i64 16
  %6 = load ptr, ptr %5, align 8, !tbaa !4
  %7 = getelementptr inbounds nuw i8, ptr %0, i64 24
  %8 = load ptr, ptr %7, align 8, !tbaa !4
  %9 = getelementptr inbounds nuw i8, ptr %0, i64 32
  %10 = load ptr, ptr %9, align 8, !tbaa !4
  %11 = getelementptr inbounds nuw i8, ptr %0, i64 40
  %12 = load ptr, ptr %11, align 8, !tbaa !4
  %13 = getelementptr inbounds nuw i8, ptr %0, i64 48
  %14 = load ptr, ptr %13, align 8, !tbaa !4
  %15 = getelementptr inbounds nuw i8, ptr %0, i64 56
  %16 = load ptr, ptr %15, align 8, !tbaa !4
  %17 = getelementptr inbounds nuw i8, ptr %0, i64 64
  %18 = load ptr, ptr %17, align 8, !tbaa !4
  %19 = getelementptr inbounds nuw i8, ptr %0, i64 72
  %20 = load ptr, ptr %19, align 8, !tbaa !4
  %21 = getelementptr inbounds nuw i8, ptr %0, i64 80
  %22 = load ptr, ptr %21, align 8, !tbaa !4
  %23 = getelementptr inbounds nuw i8, ptr %0, i64 88
  %24 = load ptr, ptr %23, align 8, !tbaa !4
  %25 = getelementptr inbounds nuw i8, ptr %0, i64 96
  %26 = load ptr, ptr %25, align 8, !tbaa !4
  %27 = getelementptr inbounds nuw i8, ptr %0, i64 104
  %28 = load ptr, ptr %27, align 8, !tbaa !4
  %29 = getelementptr inbounds nuw i8, ptr %0, i64 112
  %30 = load ptr, ptr %29, align 8, !tbaa !4
  %31 = getelementptr inbounds nuw i8, ptr %0, i64 120
  %32 = load ptr, ptr %31, align 8, !tbaa !4
  %33 = getelementptr inbounds nuw i8, ptr %0, i64 128
  %34 = load ptr, ptr %33, align 8, !tbaa !4
  %35 = getelementptr inbounds nuw i8, ptr %0, i64 136
  %36 = load ptr, ptr %35, align 8, !tbaa !4
  %37 = getelementptr inbounds nuw i8, ptr %0, i64 144
  %38 = load ptr, ptr %37, align 8, !tbaa !4
  %39 = getelementptr inbounds nuw i8, ptr %0, i64 152
  %40 = load ptr, ptr %39, align 8, !tbaa !4
  %41 = ptrtoint ptr %22 to i64
  %42 = lshr i64 %41, 1
  %43 = trunc i64 %42 to i8
  %44 = and i64 %41, 1
  %.not = icmp eq i64 %44, 0
  br i1 %.not, label %45, label %lean_dec.exit55

45:                                               ; preds = %1
  %46 = load i32, ptr %22, align 4, !tbaa !8
  %47 = icmp sgt i32 %46, 1
  br i1 %47, label %48, label %50, !prof !11

48:                                               ; preds = %45
  %49 = add nsw i32 %46, -1
  store i32 %49, ptr %22, align 4, !tbaa !8
  br label %lean_dec.exit55

50:                                               ; preds = %45
  %.not.i = icmp eq i32 %46, 0
  br i1 %.not.i, label %lean_dec.exit55, label %51

51:                                               ; preds = %50
  tail call void @lean_dec_ref_cold(ptr noundef nonnull %22) #6
  br label %lean_dec.exit55

lean_dec.exit55:                                  ; preds = %51, %50, %48, %1
  %52 = tail call ptr @l_Lean_Expr_withAppAux___at___private_Lean_Meta_RecursorInfo_0__Lean_Meta_mkRecursorInfoCore___spec__2___lambda__1(ptr noundef %2, ptr noundef %4, ptr noundef %6, ptr noundef %8, ptr noundef %10, ptr noundef %12, ptr noundef %14, ptr noundef %16, ptr noundef %18, ptr noundef %20, i8 noundef zeroext %43, ptr noundef %24, ptr noundef %26, ptr noundef %28, ptr noundef %30, ptr noundef %32, ptr noundef %34, ptr noundef %36, ptr noundef %38, ptr noundef %40)
  %53 = ptrtoint ptr %30 to i64
  %54 = and i64 %53, 1
  %.not70 = icmp eq i64 %54, 0
  br i1 %.not70, label %55, label %lean_dec.exit54

55:                                               ; preds = %lean_dec.exit55
  %56 = load i32, ptr %30, align 4, !tbaa !8
  %57 = icmp sgt i32 %56, 1
  br i1 %57, label %58, label %60, !prof !11

58:                                               ; preds = %55
  %59 = add nsw i32 %56, -1
  store i32 %59, ptr %30, align 4, !tbaa !8
  br label %lean_dec.exit54

60:                                               ; preds = %55
  %.not.i56 = icmp eq i32 %56, 0
  br i1 %.not.i56, label %lean_dec.exit54, label %61

61:                                               ; preds = %60
  tail call void @lean_dec_ref_cold(ptr noundef nonnull %30) #6
  br label %lean_dec.exit54

lean_dec.exit54:                                  ; preds = %61, %60, %58, %lean_dec.exit55
  %62 = ptrtoint ptr %28 to i64
  %63 = and i64 %62, 1
  %.not71 = icmp eq i64 %63, 0
  br i1 %.not71, label %64, label %lean_dec.exit53

64:                                               ; preds = %lean_dec.exit54
  %65 = load i32, ptr %28, align 4, !tbaa !8
  %66 = icmp sgt i32 %65, 1
  br i1 %66, label %67, label %69, !prof !11

67:                                               ; preds = %64
  %68 = add nsw i32 %65, -1
  store i32 %68, ptr %28, align 4, !tbaa !8
  br label %lean_dec.exit53

69:                                               ; preds = %64
  %.not.i58 = icmp eq i32 %65, 0
  br i1 %.not.i58, label %lean_dec.exit53, label %70

70:                                               ; preds = %69
  tail call void @lean_dec_ref_cold(ptr noundef nonnull %28) #6
  br label %lean_dec.exit53

lean_dec.exit53:                                  ; preds = %70, %69, %67, %lean_dec.exit54
  %71 = ptrtoint ptr %14 to i64
  %72 = and i64 %71, 1
  %.not72 = icmp eq i64 %72, 0
  br i1 %.not72, label %73, label %lean_dec.exit52

73:                                               ; preds = %lean_dec.exit53
  %74 = load i32, ptr %14, align 4, !tbaa !8
  %75 = icmp sgt i32 %74, 1
  br i1 %75, label %76, label %78, !prof !11

76:                                               ; preds = %73
  %77 = add nsw i32 %74, -1
  store i32 %77, ptr %14, align 4, !tbaa !8
  br label %lean_dec.exit52

78:                                               ; preds = %73
  %.not.i60 = icmp eq i32 %74, 0
  br i1 %.not.i60, label %lean_dec.exit52, label %79

79:                                               ; preds = %78
  tail call void @lean_dec_ref_cold(ptr noundef nonnull %14) #6
  br label %lean_dec.exit52

lean_dec.exit52:                                  ; preds = %79, %78, %76, %lean_dec.exit53
  %80 = ptrtoint ptr %12 to i64
  %81 = and i64 %80, 1
  %.not73 = icmp eq i64 %81, 0
  br i1 %.not73, label %82, label %lean_dec.exit51

82:                                               ; preds = %lean_dec.exit52
  %83 = load i32, ptr %12, align 4, !tbaa !8
  %84 = icmp sgt i32 %83, 1
  br i1 %84, label %85, label %87, !prof !11

85:                                               ; preds = %82
  %86 = add nsw i32 %83, -1
  store i32 %86, ptr %12, align 4, !tbaa !8
  br label %lean_dec.exit51

87:                                               ; preds = %82
  %.not.i62 = icmp eq i32 %83, 0
  br i1 %.not.i62, label %lean_dec.exit51, label %88

88:                                               ; preds = %87
  tail call void @lean_dec_ref_cold(ptr noundef nonnull %12) #6
  br label %lean_dec.exit51

lean_dec.exit51:                                  ; preds = %88, %87, %85, %lean_dec.exit52
  %89 = ptrtoint ptr %10 to i64
  %90 = and i64 %89, 1
  %.not74 = icmp eq i64 %90, 0
  br i1 %.not74, label %91, label %lean_dec.exit50

91:                                               ; preds = %lean_dec.exit51
  %92 = load i32, ptr %10, align 4, !tbaa !8
  %93 = icmp sgt i32 %92, 1
  br i1 %93, label %94, label %96, !prof !11

94:                                               ; preds = %91
  %95 = add nsw i32 %92, -1
  store i32 %95, ptr %10, align 4, !tbaa !8
  br label %lean_dec.exit50

96:                                               ; preds = %91
  %.not.i64 = icmp eq i32 %92, 0
  br i1 %.not.i64, label %lean_dec.exit50, label %97

97:                                               ; preds = %96
  tail call void @lean_dec_ref_cold(ptr noundef nonnull %10) #6
  br label %lean_dec.exit50

lean_dec.exit50:                                  ; preds = %97, %96, %94, %lean_dec.exit51
  %98 = ptrtoint ptr %6 to i64
  %99 = and i64 %98, 1
  %.not75 = icmp eq i64 %99, 0
  br i1 %.not75, label %100, label %lean_dec.exit49

100:                                              ; preds = %lean_dec.exit50
  %101 = load i32, ptr %6, align 4, !tbaa !8
  %102 = icmp sgt i32 %101, 1
  br i1 %102, label %103, label %105, !prof !11

103:                                              ; preds = %100
  %104 = add nsw i32 %101, -1
  store i32 %104, ptr %6, align 4, !tbaa !8
  br label %lean_dec.exit49

105:                                              ; preds = %100
  %.not.i66 = icmp eq i32 %101, 0
  br i1 %.not.i66, label %lean_dec.exit49, label %106

106:                                              ; preds = %105
  tail call void @lean_dec_ref_cold(ptr noundef nonnull %6) #6
  br label %lean_dec.exit49

lean_dec.exit49:                                  ; preds = %106, %105, %103, %lean_dec.exit50
  %107 = ptrtoint ptr %4 to i64
  %108 = and i64 %107, 1
  %.not76 = icmp eq i64 %108, 0
  br i1 %.not76, label %109, label %lean_dec.exit

109:                                              ; preds = %lean_dec.exit49
  %110 = load i32, ptr %4, align 4, !tbaa !8
  %111 = icmp sgt i32 %110, 1
  br i1 %111, label %112, label %114, !prof !11

112:                                              ; preds = %109
  %113 = add nsw i32 %110, -1
  store i32 %113, ptr %4, align 4, !tbaa !8
  br label %lean_dec.exit

114:                                              ; preds = %109
  %.not.i68 = icmp eq i32 %110, 0
  br i1 %.not.i68, label %lean_dec.exit, label %115

115:                                              ; preds = %114
  tail call void @lean_dec_ref_cold(ptr noundef nonnull %4) #6
  br label %lean_dec.exit

lean_dec.exit:                                    ; preds = %115, %114, %112, %lean_dec.exit49
  ret ptr %52
}